target datalayout = "e-m:e-p270:32:32-p271:32:32-p272:64:64-i64:64-i128:128-f80:128-n8:16:32:64-S128"
target triple = "x86_64-pc-linux-gnu"

%struct.OnigSyntaxType = type { i32, i32, i32, i32, %struct.OnigMetaCharTableType }
%struct.OnigMetaCharTableType = type { i32, i32, i32, i32, i32, i32 }
%struct.ScanEnv = type { i32, i32, ptr, ptr, i32, i32, i32, i32, ptr, ptr, ptr, ptr, ptr, ptr, i32, i32, i32, i32, [8 x ptr], ptr, i32, i32, ptr, i32 }

@onig_warn = internal global ptr @onig_null_warn, align 8
@.str.21 = private unnamed_addr constant [40 x i8] c"character class has '%s' without escape\00", align 1

; Function Attrs: nounwind sspstrong uwtable
define internal void @CC_ESC_WARN(ptr noundef %0, ptr noundef %1) #0 {
  %3 = alloca ptr, align 8
  %4 = alloca ptr, align 8
  store ptr %0, ptr %3, align 8, !tbaa !12
  store ptr %1, ptr %4, align 8, !tbaa !7
  %5 = load ptr, ptr @onig_warn, align 8, !tbaa !12
  %6 = icmp eq ptr %5, @onig_null_warn
  br i1 %6, label %7, label %8

7:                                                ; preds = %2
  br label %27

8:                                                ; preds = %2
  %9 = load ptr, ptr %3, align 8, !tbaa !12
  %10 = getelementptr inbounds nuw %struct.ScanEnv, ptr %9, i32 0, i32 3
  %11 = load ptr, ptr %10, align 8, !tbaa !99
  %12 = getelementptr inbounds nuw %struct.OnigSyntaxType, ptr %11, i32 0, i32 2
  %13 = load i32, ptr %12, align 4, !tbaa !65
  %14 = and i32 %13, 16777216
  %15 = icmp ne i32 %14, 0
  br i1 %15, label %16, label %27

16:                                               ; preds = %8
  %17 = load ptr, ptr %3, align 8, !tbaa !12
  %18 = getelementptr inbounds nuw %struct.ScanEnv, ptr %17, i32 0, i32 3
  %19 = load ptr, ptr %18, align 8, !tbaa !99
  %20 = getelementptr inbounds nuw %struct.OnigSyntaxType, ptr %19, i32 0, i32 2
  %21 = load i32, ptr %20, align 4, !tbaa !65
  %22 = and i32 %21, 2097152
  %23 = icmp ne i32 %22, 0
  br i1 %23, label %24, label %27

24:                                               ; preds = %16
  %25 = load ptr, ptr %3, align 8, !tbaa !12
  %26 = load ptr, ptr %4, align 8, !tbaa !7
  call void (ptr, ptr, ...) @onig_syntax_warn(ptr noundef %25, ptr noundef @.str.21, ptr noundef %26)
  br label %27

27:                                               ; preds = %7, %24, %16, %8
  ret void
}