; Function Attrs: nounwind sspstrong uwtable
define internal fastcc void @CC_ESC_WARN(ptr noundef readonly captures(none) %0, ptr noundef %1) unnamed_addr #5 {
  %3 = load ptr, ptr @onig_warn, align 8, !tbaa !7
  %4 = icmp eq ptr %3, @onig_null_warn
  br i1 %4, label %12, label %5

5:                                                ; preds = %2
  %6 = getelementptr inbounds nuw i8, ptr %0, i64 16
  %7 = load ptr, ptr %6, align 8, !tbaa !85
  %8 = getelementptr inbounds nuw i8, ptr %7, i64 8
  %9 = load i32, ptr %8, align 4, !tbaa !58
  %10 = and i32 %9, 18874368
  %or.cond.not = icmp eq i32 %10, 18874368
  br i1 %or.cond.not, label %11, label %12

11:                                               ; preds = %5
  tail call void (ptr, ptr, ...) @onig_syntax_warn(ptr noundef nonnull %0, ptr noundef nonnull @.str.21, ptr noundef %1)
  br label %12

12:                                               ; preds = %2, %11, %5
  ret void
}